; ModuleID = '12/741.c'
source_filename = "12/741.c"
target datalayout = "e-m:e-p270:32:32-p271:32:32-p272:64:64-i64:64-f80:128-n8:16:32:64-S128"
target triple = "x86_64-pc-linux-gnu"

@.str = private unnamed_addr constant [3 x i8] c"%d\00", align 1
@.str.1 = private unnamed_addr constant [4 x i8] c"%d\0A\00", align 1

; Function Attrs: noinline nounwind uwtable
define dso_local i32 @main() #0 {
  %1 = alloca i32, align 4
  %2 = alloca [101 x [16 x i32]], align 16
  %3 = alloca [100 x i32], align 16
  %4 = alloca [101 x i32], align 16
  %5 = alloca i32, align 4
  %6 = alloca i32, align 4
  %7 = alloca i32, align 4
  %8 = alloca i32, align 4
  %9 = alloca i32, align 4
  store i32 0, i32* %1, align 4
  %10 = bitcast [100 x i32]* %3 to i8*
  call void @llvm.memset.p0i8.i64(i8* align 16 %10, i8 0, i64 400, i1 false)
  store i32 1, i32* %6, align 4
  br label %11

11:                                               ; preds = %60, %0
  %12 = load i32, i32* %6, align 4
  %13 = icmp sle i32 %12, 100
  br i1 %13, label %14, label %63

14:                                               ; preds = %11
  %15 = load i32, i32* %6, align 4
  %16 = sext i32 %15 to i64
  %17 = getelementptr inbounds [101 x [16 x i32]], [101 x [16 x i32]]* %2, i64 0, i64 %16
  %18 = getelementptr inbounds [16 x i32], [16 x i32]* %17, i64 0, i64 1
  %19 = call i32 (i8*, ...) @__isoc99_scanf(i8* getelementptr inbounds ([3 x i8], [3 x i8]* @.str, i64 0, i64 0), i32* %18)
  %20 = load i32, i32* %6, align 4
  %21 = sext i32 %20 to i64
  %22 = getelementptr inbounds [101 x [16 x i32]], [101 x [16 x i32]]* %2, i64 0, i64 %21
  %23 = getelementptr inbounds [16 x i32], [16 x i32]* %22, i64 0, i64 1
  %24 = load i32, i32* %23, align 4
  %25 = icmp eq i32 %24, -1
  br i1 %25, label %26, label %29

26:                                               ; preds = %14
  %27 = load i32, i32* %6, align 4
  %28 = add nsw i32 %27, -1
  store i32 %28, i32* %6, align 4
  br label %63

29:                                               ; preds = %14
  store i32 2, i32* %7, align 4
  br label %30

30:                                               ; preds = %51, %29
  br i1 true, label %31, label %54

31:                                               ; preds = %30
  %32 = load i32, i32* %6, align 4
  %33 = sext i32 %32 to i64
  %34 = getelementptr inbounds [101 x [16 x i32]], [101 x [16 x i32]]* %2, i64 0, i64 %33
  %35 = load i32, i32* %7, align 4
  %36 = sext i32 %35 to i64
  %37 = getelementptr inbounds [16 x i32], [16 x i32]* %34, i64 0, i64 %36
  %38 = call i32 (i8*, ...) @__isoc99_scanf(i8* getelementptr inbounds ([3 x i8], [3 x i8]* @.str, i64 0, i64 0), i32* %37)
  %39 = load i32, i32* %6, align 4
  %40 = sext i32 %39 to i64
  %41 = getelementptr inbounds [101 x [16 x i32]], [101 x [16 x i32]]* %2, i64 0, i64 %40
  %42 = load i32, i32* %7, align 4
  %43 = sext i32 %42 to i64
  %44 = getelementptr inbounds [16 x i32], [16 x i32]* %41, i64 0, i64 %43
  %45 = load i32, i32* %44, align 4
  %46 = icmp eq i32 %45, 0
  br i1 %46, label %47, label %50

47:                                               ; preds = %31
  %48 = load i32, i32* %7, align 4
  %49 = sub nsw i32 %48, 1
  store i32 %49, i32* %7, align 4
  br label %54

50:                                               ; preds = %31
  br label %51

51:                                               ; preds = %50
  %52 = load i32, i32* %7, align 4
  %53 = add nsw i32 %52, 1
  store i32 %53, i32* %7, align 4
  br label %30

54:                                               ; preds = %47, %30
  br label %55

55:                                               ; preds = %54
  %56 = load i32, i32* %7, align 4
  %57 = load i32, i32* %6, align 4
  %58 = sext i32 %57 to i64
  %59 = getelementptr inbounds [101 x i32], [101 x i32]* %4, i64 0, i64 %58
  store i32 %56, i32* %59, align 4
  br label %60

60:                                               ; preds = %55
  %61 = load i32, i32* %6, align 4
  %62 = add nsw i32 %61, 1
  store i32 %62, i32* %6, align 4
  br label %11

63:                                               ; preds = %26, %11
  store i32 1, i32* %5, align 4
  br label %64

64:                                               ; preds = %149, %63
  %65 = load i32, i32* %5, align 4
  %66 = load i32, i32* %6, align 4
  %67 = icmp sle i32 %65, %66
  br i1 %67, label %68, label %152

68:                                               ; preds = %64
  store i32 1, i32* %8, align 4
  br label %69

69:                                               ; preds = %140, %68
  %70 = load i32, i32* %8, align 4
  %71 = load i32, i32* %5, align 4
  %72 = sext i32 %71 to i64
  %73 = getelementptr inbounds [101 x i32], [101 x i32]* %4, i64 0, i64 %72
  %74 = load i32, i32* %73, align 4
  %75 = icmp sle i32 %70, %74
  br i1 %75, label %76, label %143

76:                                               ; preds = %69
  store i32 1, i32* %9, align 4
  br label %77

77:                                               ; preds = %136, %76
  %78 = load i32, i32* %9, align 4
  %79 = load i32, i32* %5, align 4
  %80 = sext i32 %79 to i64
  %81 = getelementptr inbounds [101 x i32], [101 x i32]* %4, i64 0, i64 %80
  %82 = load i32, i32* %81, align 4
  %83 = icmp sle i32 %78, %82
  br i1 %83, label %84, label %139

84:                                               ; preds = %77
  %85 = load i32, i32* %5, align 4
  %86 = sext i32 %85 to i64
  %87 = getelementptr inbounds [101 x [16 x i32]], [101 x [16 x i32]]* %2, i64 0, i64 %86
  %88 = load i32, i32* %9, align 4
  %89 = sext i32 %88 to i64
  %90 = getelementptr inbounds [16 x i32], [16 x i32]* %87, i64 0, i64 %89
  %91 = load i32, i32* %90, align 4
  %92 = load i32, i32* %5, align 4
  %93 = sext i32 %92 to i64
  %94 = getelementptr inbounds [101 x [16 x i32]], [101 x [16 x i32]]* %2, i64 0, i64 %93
  %95 = load i32, i32* %8, align 4
  %96 = sext i32 %95 to i64
  %97 = getelementptr inbounds [16 x i32], [16 x i32]* %94, i64 0, i64 %96
  %98 = load i32, i32* %97, align 4
  %99 = sdiv i32 %91, %98
  %100 = icmp eq i32 %99, 2
  br i1 %100, label %101, label %127

101:                                              ; preds = %84
  %102 = load i32, i32* %5, align 4
  %103 = sext i32 %102 to i64
  %104 = getelementptr inbounds [101 x [16 x i32]], [101 x [16 x i32]]* %2, i64 0, i64 %103
  %105 = load i32, i32* %9, align 4
  %106 = sext i32 %105 to i64
  %107 = getelementptr inbounds [16 x i32], [16 x i32]* %104, i64 0, i64 %106
  %108 = load i32, i32* %107, align 4
  %109 = load i32, i32* %5, align 4
  %110 = sext i32 %109 to i64
  %111 = getelementptr inbounds [101 x [16 x i32]], [101 x [16 x i32]]* %2, i64 0, i64 %110
  %112 = load i32, i32* %8, align 4
  %113 = sext i32 %112 to i64
  %114 = getelementptr inbounds [16 x i32], [16 x i32]* %111, i64 0, i64 %113
  %115 = load i32, i32* %114, align 4
  %116 = srem i32 %108, %115
  %117 = icmp eq i32 %116, 0
  br i1 %117, label %118, label %127

118:                                              ; preds = %101
  %119 = load i32, i32* %5, align 4
  %120 = sext i32 %119 to i64
  %121 = getelementptr inbounds [100 x i32], [100 x i32]* %3, i64 0, i64 %120
  %122 = load i32, i32* %121, align 4
  %123 = add nsw i32 %122, 1
  %124 = load i32, i32* %5, align 4
  %125 = sext i32 %124 to i64
  %126 = getelementptr inbounds [100 x i32], [100 x i32]* %3, i64 0, i64 %125
  store i32 %123, i32* %126, align 4
  br label %135

127:                                              ; preds = %101, %84
  %128 = load i32, i32* %5, align 4
  %129 = sext i32 %128 to i64
  %130 = getelementptr inbounds [100 x i32], [100 x i32]* %3, i64 0, i64 %129
  %131 = load i32, i32* %130, align 4
  %132 = load i32, i32* %5, align 4
  %133 = sext i32 %132 to i64
  %134 = getelementptr inbounds [100 x i32], [100 x i32]* %3, i64 0, i64 %133
  store i32 %131, i32* %134, align 4
  br label %135

135:                                              ; preds = %127, %118
  br label %136

136:                                              ; preds = %135
  %137 = load i32, i32* %9, align 4
  %138 = add nsw i32 %137, 1
  store i32 %138, i32* %9, align 4
  br label %77

139:                                              ; preds = %77
  br label %140

140:                                              ; preds = %139
  %141 = load i32, i32* %8, align 4
  %142 = add nsw i32 %141, 1
  store i32 %142, i32* %8, align 4
  br label %69

143:                                              ; preds = %69
  %144 = load i32, i32* %5, align 4
  %145 = sext i32 %144 to i64
  %146 = getelementptr inbounds [100 x i32], [100 x i32]* %3, i64 0, i64 %145
  %147 = load i32, i32* %146, align 4
  %148 = call i32 (i8*, ...) @printf(i8* getelementptr inbounds ([4 x i8], [4 x i8]* @.str.1, i64 0, i64 0), i32 %147)
  br label %149

149:                                              ; preds = %143
  %150 = load i32, i32* %5, align 4
  %151 = add nsw i32 %150, 1
  store i32 %151, i32* %5, align 4
  br label %64

152:                                              ; preds = %64
  ret i32 0
}

; Function Attrs: argmemonly nounwind willreturn
declare void @llvm.memset.p0i8.i64(i8* nocapture writeonly, i8, i64, i1 immarg) #1

declare dso_local i32 @__isoc99_scanf(i8*, ...) #2

declare dso_local i32 @printf(i8*, ...) #2


!llvm.module.flags = !{!0}
!llvm.ident = !{!1}

!0 = !{i32 1, !"wchar_size", i32 4}
!1 = !{!"clang version 10.0.0-4ubuntu1 "}
