; ModuleID = 'source-C-CXX/11/741.c'
source_filename = "source-C-CXX/11/741.c"
target datalayout = "e-m:e-p270:32:32-p271:32:32-p272:64:64-i64:64-f80:128-n8:16:32:64-S128"
target triple = "x86_64-pc-linux-gnu"

@.str = private unnamed_addr constant [3 x i8] c"%d\00", align 1
@.str.1 = private unnamed_addr constant [4 x i8] c"%d\0A\00", align 1

; Function Attrs: nofree nounwind sspstrong uwtable
define dso_local i32 @main() local_unnamed_addr #0 {
  %1 = alloca [101 x [16 x i32]], align 16
  %2 = alloca [100 x i32], align 16
  %3 = alloca [101 x i32], align 16
  %4 = bitcast [101 x [16 x i32]]* %1 to i8*
  call void @llvm.lifetime.start.p0i8(i64 6464, i8* nonnull %4) #4
  %5 = bitcast [100 x i32]* %2 to i8*
  call void @llvm.lifetime.start.p0i8(i64 400, i8* nonnull %5) #4
  call void @llvm.memset.p0i8.i64(i8* noundef nonnull align 16 dereferenceable(400) %5, i8 0, i64 400, i1 false)
  %6 = bitcast [101 x i32]* %3 to i8*
  call void @llvm.lifetime.start.p0i8(i64 404, i8* nonnull %6) #4
  br label %7

7:                                                ; preds = %0, %20
  %8 = phi i64 [ 1, %0 ], [ %24, %20 ]
  %9 = getelementptr inbounds [101 x [16 x i32]], [101 x [16 x i32]]* %1, i64 0, i64 %8, i64 1
  %10 = call i32 (i8*, ...) @__isoc99_scanf(i8* getelementptr inbounds ([3 x i8], [3 x i8]* @.str, i64 0, i64 0), i32* nonnull %9)
  %11 = load i32, i32* %9, align 4, !tbaa !5
  %12 = icmp eq i32 %11, -1
  br i1 %12, label %26, label %13

13:                                               ; preds = %7, %13
  %14 = phi i64 [ %19, %13 ], [ 2, %7 ]
  %15 = getelementptr inbounds [101 x [16 x i32]], [101 x [16 x i32]]* %1, i64 0, i64 %8, i64 %14
  %16 = call i32 (i8*, ...) @__isoc99_scanf(i8* getelementptr inbounds ([3 x i8], [3 x i8]* @.str, i64 0, i64 0), i32* nonnull %15)
  %17 = load i32, i32* %15, align 4, !tbaa !5
  %18 = icmp eq i32 %17, 0
  %19 = add nuw i64 %14, 1
  br i1 %18, label %20, label %13

20:                                               ; preds = %13
  %21 = trunc i64 %14 to i32
  %22 = add nsw i32 %21, -1
  %23 = getelementptr inbounds [101 x i32], [101 x i32]* %3, i64 0, i64 %8
  store i32 %22, i32* %23, align 4, !tbaa !5
  %24 = add nuw nsw i64 %8, 1
  %25 = icmp eq i64 %24, 101
  br i1 %25, label %30, label %7, !llvm.loop !9

26:                                               ; preds = %7
  %27 = trunc i64 %8 to i32
  %28 = add nuw i64 %8, 4294967295
  %29 = icmp slt i32 %27, 2
  br i1 %29, label %70, label %30

30:                                               ; preds = %20, %26
  %31 = phi i64 [ %28, %26 ], [ 101, %20 ]
  %32 = add i64 %31, 1
  %33 = and i64 %32, 4294967295
  br label %34

34:                                               ; preds = %30, %65
  %35 = phi i64 [ 1, %30 ], [ %68, %65 ]
  %36 = getelementptr inbounds [101 x i32], [101 x i32]* %3, i64 0, i64 %35
  %37 = load i32, i32* %36, align 4, !tbaa !5
  %38 = getelementptr inbounds [100 x i32], [100 x i32]* %2, i64 0, i64 %35
  %39 = icmp slt i32 %37, 1
  br i1 %39, label %65, label %40

40:                                               ; preds = %34
  %41 = add nuw i32 %37, 1
  %42 = zext i32 %41 to i64
  br label %43

43:                                               ; preds = %40, %62
  %44 = phi i64 [ 1, %40 ], [ %63, %62 ]
  %45 = getelementptr inbounds [101 x [16 x i32]], [101 x [16 x i32]]* %1, i64 0, i64 %35, i64 %44
  %46 = load i32, i32* %45, align 4, !tbaa !5
  br label %47

47:                                               ; preds = %43, %59
  %48 = phi i64 [ 1, %43 ], [ %60, %59 ]
  %49 = getelementptr inbounds [101 x [16 x i32]], [101 x [16 x i32]]* %1, i64 0, i64 %35, i64 %48
  %50 = load i32, i32* %49, align 4, !tbaa !5
  %51 = sdiv i32 %50, %46
  %52 = srem i32 %50, %46
  %53 = icmp eq i32 %51, 2
  %54 = icmp eq i32 %52, 0
  %55 = and i1 %53, %54
  br i1 %55, label %56, label %59

56:                                               ; preds = %47
  %57 = load i32, i32* %38, align 4, !tbaa !5
  %58 = add nsw i32 %57, 1
  store i32 %58, i32* %38, align 4, !tbaa !5
  br label %59

59:                                               ; preds = %47, %56
  %60 = add nuw nsw i64 %48, 1
  %61 = icmp eq i64 %60, %42
  br i1 %61, label %62, label %47, !llvm.loop !11

62:                                               ; preds = %59
  %63 = add nuw nsw i64 %44, 1
  %64 = icmp eq i64 %63, %42
  br i1 %64, label %65, label %43, !llvm.loop !12

65:                                               ; preds = %62, %34
  %66 = load i32, i32* %38, align 4, !tbaa !5
  %67 = call i32 (i8*, ...) @printf(i8* nonnull dereferenceable(1) getelementptr inbounds ([4 x i8], [4 x i8]* @.str.1, i64 0, i64 0), i32 %66)
  %68 = add nuw nsw i64 %35, 1
  %69 = icmp eq i64 %68, %33
  br i1 %69, label %70, label %34, !llvm.loop !13

70:                                               ; preds = %65, %26
  call void @llvm.lifetime.end.p0i8(i64 404, i8* nonnull %6) #4
  call void @llvm.lifetime.end.p0i8(i64 400, i8* nonnull %5) #4
  call void @llvm.lifetime.end.p0i8(i64 6464, i8* nonnull %4) #4
  ret i32 0
}

; Function Attrs: argmemonly mustprogress nofree nosync nounwind willreturn
declare void @llvm.lifetime.start.p0i8(i64 immarg, i8* nocapture) #1

; Function Attrs: argmemonly mustprogress nofree nounwind willreturn writeonly
declare void @llvm.memset.p0i8.i64(i8* nocapture writeonly, i8, i64, i1 immarg) #2

; Function Attrs: nofree nounwind
declare noundef i32 @__isoc99_scanf(i8* nocapture noundef readonly, ...) local_unnamed_addr #3

; Function Attrs: nofree nounwind
declare noundef i32 @printf(i8* nocapture noundef readonly, ...) local_unnamed_addr #3

; Function Attrs: argmemonly mustprogress nofree nosync nounwind willreturn
declare void @llvm.lifetime.end.p0i8(i64 immarg, i8* nocapture) #1


!llvm.module.flags = !{!0, !1, !2, !3}
!llvm.ident = !{!4}

!0 = !{i32 1, !"wchar_size", i32 4}
!1 = !{i32 7, !"PIC Level", i32 2}
!2 = !{i32 7, !"PIE Level", i32 2}
!3 = !{i32 7, !"uwtable", i32 1}
!4 = !{!"clang version 13.0.0"}
!5 = !{!6, !6, i64 0}
!6 = !{!"int", !7, i64 0}
!7 = !{!"omnipotent char", !8, i64 0}
!8 = !{!"Simple C/C++ TBAA"}
!9 = distinct !{!9, !10}
!10 = !{!"llvm.loop.mustprogress"}
!11 = distinct !{!11, !10}
!12 = distinct !{!12, !10}
!13 = distinct !{!13, !10}
